; Function Attrs: mustprogress uwtable
define void @_ZN6casadi2MX3invERKS0_RKNSt7__cxx1112basic_stringIcSt11char_traitsIcESaIcEEERKSt3mapIS8_NS_11GenericTypeESt4lessIS8_ESaISt4pairIS9_SC_EEE(ptr dead_on_unwind noalias writable sret(%"class.casadi::MX") align 8 %0, ptr noundef nonnull align 8 dereferenceable(8) %1, ptr noundef nonnull align 8 dereferenceable(32) %2, ptr noundef nonnull align 8 dereferenceable(48) %3) local_unnamed_addr #3 align 2 personality ptr @__gxx_personality_v0 {
  %5 = alloca %"class.casadi::Matrix", align 8
  %6 = alloca %"class.casadi::MX", align 8
  %7 = tail call noundef ptr @_ZNK6casadi12SharedObjectptEv(ptr noundef nonnull align 8 dereferenceable(8) %1)
  %8 = getelementptr inbounds i8, ptr %7, i64 56
  %9 = tail call noundef i64 @_ZNK6casadi8Sparsity5size1Ev(ptr noundef nonnull align 8 dereferenceable(8) %8)
  call void @llvm.lifetime.start.p0(i64 40, ptr nonnull %5)
  call void @_ZN6casadi6MatrixIdE3eyeEx(ptr dead_on_unwind nonnull writable sret(%"class.casadi::Matrix") align 8 %5, i64 noundef %9), !noalias !836
  invoke void @_ZN6casadi2MXC1ERKNS_6MatrixIdEE(ptr noundef nonnull align 8 dereferenceable(8) %6, ptr noundef nonnull align 8 dereferenceable(40) %5)
          to label %10 unwind label %14

10:                                               ; preds = %4
  %11 = getelementptr inbounds i8, ptr %5, i64 16
  %12 = load ptr, ptr %11, align 8, !noalias !836
  %.not.i.i.i.i.i = icmp eq ptr %12, null
  br i1 %.not.i.i.i.i.i, label %_ZN6casadi2MX3eyeEx.exit, label %13

13:                                               ; preds = %10
  call void @_ZdlPv(ptr noundef nonnull %12) #30
  br label %_ZN6casadi2MX3eyeEx.exit

common.resume:                                    ; preds = %18, %14
  %common.resume.op = phi { ptr, i32 } [ %15, %14 ], [ %19, %18 ]
  resume { ptr, i32 } %common.resume.op

14:                                               ; preds = %4
  %15 = landingpad { ptr, i32 }
          cleanup
  call void @_ZN6casadi6MatrixIdED2Ev(ptr noundef nonnull align 8 dereferenceable(40) %5) #27
  br label %common.resume

_ZN6casadi2MX3eyeEx.exit:                         ; preds = %10, %13
  %16 = getelementptr inbounds i8, ptr %5, i64 8
  call void @_ZN6casadi12SharedObjectD2Ev(ptr noundef nonnull align 8 dereferenceable(8) %16) #27
  call void @llvm.lifetime.end.p0(i64 40, ptr nonnull %5)
  invoke void @_ZN6casadi2MX5solveERKS0_S2_RKNSt7__cxx1112basic_stringIcSt11char_traitsIcESaIcEEERKSt3mapIS8_NS_11GenericTypeESt4lessIS8_ESaISt4pairIS9_SC_EEE(ptr dead_on_unwind writable sret(%"class.casadi::MX") align 8 %0, ptr noundef nonnull align 8 dereferenceable(8) %1, ptr noundef nonnull align 8 dereferenceable(8) %6, ptr noundef nonnull align 8 dereferenceable(32) %2, ptr noundef nonnull align 8 dereferenceable(48) %3)
          to label %17 unwind label %18

17:                                               ; preds = %_ZN6casadi2MX3eyeEx.exit
  call void @_ZN6casadi2MXD1Ev(ptr noundef nonnull align 8 dereferenceable(8) %6) #27
  ret void

18:                                               ; preds = %_ZN6casadi2MX3eyeEx.exit
  %19 = landingpad { ptr, i32 }
          cleanup
  call void @_ZN6casadi2MXD1Ev(ptr noundef nonnull align 8 dereferenceable(8) %6) #27
  br label %common.resume
}